; ModuleID = '56/3011.c'
source_filename = "56/3011.c"
target datalayout = "e-m:e-p270:32:32-p271:32:32-p272:64:64-i64:64-f80:128-n8:16:32:64-S128"
target triple = "x86_64-pc-linux-gnu"

@.str = private unnamed_addr constant [3 x i8] c"%c\00", align 1

; Function Attrs: noinline nounwind uwtable
define dso_local void @main() #0 {
  %1 = alloca i8*, align 8
  %2 = alloca i8*, align 8
  %3 = call noalias i8* @malloc(i64 5) #4
  store i8* %3, i8** %1, align 8
  %4 = load i8*, i8** %1, align 8
  store i8* %4, i8** %2, align 8
  %5 = load i8*, i8** %1, align 8
  %6 = call i32 (i8*, ...) bitcast (i32 (...)* @gets to i32 (i8*, ...)*)(i8* %5)
  %7 = load i8*, i8** %1, align 8
  %8 = load i8*, i8** %1, align 8
  %9 = call i64 @strlen(i8* %8) #5
  %10 = getelementptr inbounds i8, i8* %7, i64 %9
  %11 = getelementptr inbounds i8, i8* %10, i64 -1
  store i8* %11, i8** %2, align 8
  br label %12

12:                                               ; preds = %21, %0
  %13 = load i8*, i8** %2, align 8
  %14 = load i8*, i8** %1, align 8
  %15 = icmp uge i8* %13, %14
  br i1 %15, label %16, label %24

16:                                               ; preds = %12
  %17 = load i8*, i8** %2, align 8
  %18 = load i8, i8* %17, align 1
  %19 = sext i8 %18 to i32
  %20 = call i32 (i8*, ...) @printf(i8* getelementptr inbounds ([3 x i8], [3 x i8]* @.str, i64 0, i64 0), i32 %19)
  br label %21

21:                                               ; preds = %16
  %22 = load i8*, i8** %2, align 8
  %23 = getelementptr inbounds i8, i8* %22, i32 -1
  store i8* %23, i8** %2, align 8
  br label %12

24:                                               ; preds = %12
  ret void
}

; Function Attrs: nounwind
declare dso_local noalias i8* @malloc(i64) #1

declare dso_local i32 @gets(...) #2

; Function Attrs: nounwind readonly
declare dso_local i64 @strlen(i8*) #3

declare dso_local i32 @printf(i8*, ...) #2


!llvm.module.flags = !{!0}
!llvm.ident = !{!1}

!0 = !{i32 1, !"wchar_size", i32 4}
!1 = !{!"clang version 10.0.0-4ubuntu1 "}
