; ModuleID = 'source-C-CXX/55/3011.c'
source_filename = "source-C-CXX/55/3011.c"
target datalayout = "e-m:e-p270:32:32-p271:32:32-p272:64:64-i64:64-f80:128-n8:16:32:64-S128"
target triple = "x86_64-pc-linux-gnu"

; Function Attrs: nounwind sspstrong uwtable
define dso_local void @main() local_unnamed_addr #0 {
  %1 = tail call noalias align 16 dereferenceable_or_null(5) i8* @malloc(i64 5) #5
  %2 = tail call i32 (i8*, ...) bitcast (i32 (...)* @gets to i32 (i8*, ...)*)(i8* %1) #5
  %3 = tail call i64 @strlen(i8* noundef nonnull dereferenceable(1) %1) #6
  %4 = icmp slt i64 %3, 1
  br i1 %4, label %15, label %5

5:                                                ; preds = %0
  %6 = add nsw i64 %3, -1
  %7 = getelementptr inbounds i8, i8* %1, i64 %6
  br label %8

8:                                                ; preds = %5, %8
  %9 = phi i8* [ %13, %8 ], [ %7, %5 ]
  %10 = load i8, i8* %9, align 1, !tbaa !5
  %11 = sext i8 %10 to i32
  %12 = tail call i32 @putchar(i32 %11)
  %13 = getelementptr inbounds i8, i8* %9, i64 -1
  %14 = icmp ult i8* %13, %1
  br i1 %14, label %15, label %8, !llvm.loop !8

15:                                               ; preds = %8, %0
  ret void
}

; Function Attrs: inaccessiblememonly mustprogress nofree nounwind willreturn
declare noalias noundef align 16 i8* @malloc(i64 noundef) local_unnamed_addr #1

declare i32 @gets(...) local_unnamed_addr #2

; Function Attrs: argmemonly mustprogress nofree nounwind readonly willreturn
declare i64 @strlen(i8* nocapture) local_unnamed_addr #3

; Function Attrs: nofree nounwind
declare noundef i32 @putchar(i32 noundef) local_unnamed_addr #4


!llvm.module.flags = !{!0, !1, !2, !3}
!llvm.ident = !{!4}

!0 = !{i32 1, !"wchar_size", i32 4}
!1 = !{i32 7, !"PIC Level", i32 2}
!2 = !{i32 7, !"PIE Level", i32 2}
!3 = !{i32 7, !"uwtable", i32 1}
!4 = !{!"clang version 13.0.0"}
!5 = !{!6, !6, i64 0}
!6 = !{!"omnipotent char", !7, i64 0}
!7 = !{!"Simple C/C++ TBAA"}
!8 = distinct !{!8, !9}
!9 = !{!"llvm.loop.mustprogress"}
